target datalayout = "e-m:e-p270:32:32-p271:32:32-p272:64:64-i64:64-i128:128-f80:128-n8:16:32:64-S128"
target triple = "x86_64-pc-linux-gnu"

%struct.CordRep = type { %struct.Generic, %union.ConcatOrFunc }
%struct.Generic = type { i8, i8, i8, i8, i64 }
%union.ConcatOrFunc = type { %struct.Concatenation }
%struct.Concatenation = type { ptr, ptr }
%struct.ForestElement = type { ptr, i64 }

@stderr = external global ptr, align 8
@.str = private unnamed_addr constant [4 x i8] c"%s\0A\00", align 1
@min_len_init = internal global i32 0, align 4
@min_len = internal global [48 x i64] zeroinitializer, align 16
@.str.13 = private unnamed_addr constant [14 x i8] c"Cord too long\00", align 1

; Function Attrs: nounwind uwtable
define internal ptr @CORD_concat_forest(ptr noundef %0, i64 noundef %1) #0 {
  %3 = alloca ptr, align 8
  %4 = alloca i64, align 8
  %5 = alloca i32, align 4
  %6 = alloca ptr, align 8
  %7 = alloca i64, align 8
  store ptr %0, ptr %3, align 8, !tbaa !3
  store i64 %1, ptr %4, align 8, !tbaa !13
  call void @llvm.lifetime.start.p0(i64 4, ptr %5) #9
  store i32 0, ptr %5, align 4, !tbaa !11
  call void @llvm.lifetime.start.p0(i64 8, ptr %6) #9
  store ptr null, ptr %6, align 8, !tbaa !7
  call void @llvm.lifetime.start.p0(i64 8, ptr %7) #9
  store i64 0, ptr %7, align 8, !tbaa !13
  br label %8

8:                                                ; preds = %37, %2
  %9 = load i64, ptr %7, align 8, !tbaa !13
  %10 = load i64, ptr %4, align 8, !tbaa !13
  %11 = icmp ne i64 %9, %10
  br i1 %11, label %12, label %40

12:                                               ; preds = %8
  %13 = load ptr, ptr %3, align 8, !tbaa !3
  %14 = load i32, ptr %5, align 4, !tbaa !11
  %15 = sext i32 %14 to i64
  %16 = getelementptr inbounds %struct.ForestElement, ptr %13, i64 %15
  %17 = getelementptr inbounds nuw %struct.ForestElement, ptr %16, i32 0, i32 0
  %18 = load ptr, ptr %17, align 8, !tbaa !48
  %19 = icmp ne ptr %18, null
  br i1 %19, label %20, label %37

20:                                               ; preds = %12
  %21 = load ptr, ptr %3, align 8, !tbaa !3
  %22 = load i32, ptr %5, align 4, !tbaa !11
  %23 = sext i32 %22 to i64
  %24 = getelementptr inbounds %struct.ForestElement, ptr %21, i64 %23
  %25 = getelementptr inbounds nuw %struct.ForestElement, ptr %24, i32 0, i32 0
  %26 = load ptr, ptr %25, align 8, !tbaa !48
  %27 = load ptr, ptr %6, align 8, !tbaa !7
  %28 = call ptr @CORD_cat(ptr noundef %26, ptr noundef %27)
  store ptr %28, ptr %6, align 8, !tbaa !7
  %29 = load ptr, ptr %3, align 8, !tbaa !3
  %30 = load i32, ptr %5, align 4, !tbaa !11
  %31 = sext i32 %30 to i64
  %32 = getelementptr inbounds %struct.ForestElement, ptr %29, i64 %31
  %33 = getelementptr inbounds nuw %struct.ForestElement, ptr %32, i32 0, i32 1
  %34 = load i64, ptr %33, align 8, !tbaa !51
  %35 = load i64, ptr %7, align 8, !tbaa !13
  %36 = add i64 %35, %34
  store i64 %36, ptr %7, align 8, !tbaa !13
  br label %37

37:                                               ; preds = %20, %12
  %38 = load i32, ptr %5, align 4, !tbaa !11
  %39 = add nsw i32 %38, 1
  store i32 %39, ptr %5, align 4, !tbaa !11
  br label %8, !llvm.loop !52

40:                                               ; preds = %8
  %41 = load ptr, ptr %6, align 8, !tbaa !7
  call void @llvm.lifetime.end.p0(i64 8, ptr %7) #9
  call void @llvm.lifetime.end.p0(i64 8, ptr %6) #9
  call void @llvm.lifetime.end.p0(i64 4, ptr %5) #9
  ret ptr %41
}

; Function Attrs: nounwind uwtable
define internal void @CORD_init_forest(ptr noundef %0, i64 noundef %1) #0 {
  %3 = alloca ptr, align 8
  %4 = alloca i64, align 8
  %5 = alloca i32, align 4
  store ptr %0, ptr %3, align 8, !tbaa !3
  store i64 %1, ptr %4, align 8, !tbaa !13
  call void @llvm.lifetime.start.p0(i64 4, ptr %5) #9
  store i32 0, ptr %5, align 4, !tbaa !11
  br label %6

6:                                                ; preds = %23, %2
  %7 = load i32, ptr %5, align 4, !tbaa !11
  %8 = icmp slt i32 %7, 48
  br i1 %8, label %9, label %26

9:                                                ; preds = %6
  %10 = load ptr, ptr %3, align 8, !tbaa !3
  %11 = load i32, ptr %5, align 4, !tbaa !11
  %12 = sext i32 %11 to i64
  %13 = getelementptr inbounds %struct.ForestElement, ptr %10, i64 %12
  %14 = getelementptr inbounds nuw %struct.ForestElement, ptr %13, i32 0, i32 0
  store ptr null, ptr %14, align 8, !tbaa !48
  %15 = load i32, ptr %5, align 4, !tbaa !11
  %16 = sext i32 %15 to i64
  %17 = getelementptr inbounds [48 x i64], ptr @min_len, i64 0, i64 %16
  %18 = load i64, ptr %17, align 8, !tbaa !13
  %19 = load i64, ptr %4, align 8, !tbaa !13
  %20 = icmp ugt i64 %18, %19
  br i1 %20, label %21, label %22

21:                                               ; preds = %9
  call void @llvm.lifetime.end.p0(i64 4, ptr %5) #9
  ret void

22:                                               ; preds = %9
  br label %23

23:                                               ; preds = %22
  %24 = load i32, ptr %5, align 4, !tbaa !11
  %25 = add nsw i32 %24, 1
  store i32 %25, ptr %5, align 4, !tbaa !11
  br label %6, !llvm.loop !50

26:                                               ; preds = %6
  %27 = load ptr, ptr @stderr, align 8, !tbaa !9
  %28 = call i32 (ptr, ptr, ...) @fprintf(ptr noundef %27, ptr noundef @.str, ptr noundef @.str.13) #9
  call void @abort() #12
  unreachable
}

; Function Attrs: nounwind uwtable
define internal void @CORD_init_min_len() #0 {
  %1 = alloca i32, align 4
  %2 = alloca i64, align 8
  %3 = alloca i64, align 8
  %4 = alloca i64, align 8
  call void @llvm.lifetime.start.p0(i64 4, ptr %1) #9
  call void @llvm.lifetime.start.p0(i64 8, ptr %2) #9
  call void @llvm.lifetime.start.p0(i64 8, ptr %3) #9
  store i64 1, ptr %3, align 8, !tbaa !13
  store i64 1, ptr @min_len, align 16, !tbaa !13
  store i64 2, ptr %2, align 8, !tbaa !13
  store i64 2, ptr getelementptr inbounds ([48 x i64], ptr @min_len, i64 0, i64 1), align 8, !tbaa !13
  store i32 2, ptr %1, align 4, !tbaa !11
  br label %5

5:                                                ; preds = %27, %0
  %6 = load i32, ptr %1, align 4, !tbaa !11
  %7 = icmp slt i32 %6, 48
  br i1 %7, label %8, label %30

8:                                                ; preds = %5
  call void @llvm.lifetime.start.p0(i64 8, ptr %4) #9
  %9 = load i64, ptr %2, align 8, !tbaa !13
  %10 = load i64, ptr %3, align 8, !tbaa !13
  %11 = sub i64 -1, %10
  %12 = icmp ult i64 %9, %11
  br i1 %12, label %13, label %17

13:                                               ; preds = %8
  %14 = load i64, ptr %2, align 8, !tbaa !13
  %15 = load i64, ptr %3, align 8, !tbaa !13
  %16 = add i64 %14, %15
  br label %19

17:                                               ; preds = %8
  %18 = load i64, ptr %2, align 8, !tbaa !13
  br label %19

19:                                               ; preds = %17, %13
  %20 = phi i64 [ %16, %13 ], [ %18, %17 ]
  store i64 %20, ptr %4, align 8, !tbaa !13
  %21 = load i64, ptr %4, align 8, !tbaa !13
  %22 = load i32, ptr %1, align 4, !tbaa !11
  %23 = sext i32 %22 to i64
  %24 = getelementptr inbounds [48 x i64], ptr @min_len, i64 0, i64 %23
  store i64 %21, ptr %24, align 8, !tbaa !13
  %25 = load i64, ptr %2, align 8, !tbaa !13
  store i64 %25, ptr %3, align 8, !tbaa !13
  %26 = load i64, ptr %4, align 8, !tbaa !13
  store i64 %26, ptr %2, align 8, !tbaa !13
  call void @llvm.lifetime.end.p0(i64 8, ptr %4) #9
  br label %27

27:                                               ; preds = %19
  %28 = load i32, ptr %1, align 4, !tbaa !11
  %29 = add nsw i32 %28, 1
  store i32 %29, ptr %1, align 4, !tbaa !11
  br label %5, !llvm.loop !47

30:                                               ; preds = %5
  store i32 1, ptr @min_len_init, align 4, !tbaa !11
  call void @llvm.lifetime.end.p0(i64 8, ptr %3) #9
  call void @llvm.lifetime.end.p0(i64 8, ptr %2) #9
  call void @llvm.lifetime.end.p0(i64 4, ptr %1) #9
  ret void
}

; Function Attrs: nounwind uwtable
define ptr @CORD_balance(ptr noundef %0) #0 {
  %2 = alloca ptr, align 8
  %3 = alloca ptr, align 8
  %4 = alloca [48 x %struct.ForestElement], align 16
  %5 = alloca i64, align 8
  %6 = alloca i32, align 4
  store ptr %0, ptr %3, align 8, !tbaa !7
  call void @llvm.lifetime.start.p0(i64 768, ptr %4) #9
  call void @llvm.lifetime.start.p0(i64 8, ptr %5) #9
  %7 = load ptr, ptr %3, align 8, !tbaa !7
  %8 = icmp eq ptr null, %7
  br i1 %8, label %9, label %10

9:                                                ; preds = %1
  store ptr null, ptr %2, align 8
  store i32 1, ptr %6, align 4
  br label %34

10:                                               ; preds = %1
  %11 = load ptr, ptr %3, align 8, !tbaa !7
  %12 = load i8, ptr %11, align 1, !tbaa !17
  %13 = sext i8 %12 to i32
  %14 = icmp ne i32 %13, 0
  br i1 %14, label %15, label %17

15:                                               ; preds = %10
  %16 = load ptr, ptr %3, align 8, !tbaa !7
  store ptr %16, ptr %2, align 8
  store i32 1, ptr %6, align 4
  br label %34

17:                                               ; preds = %10
  %18 = load i32, ptr @min_len_init, align 4, !tbaa !11
  %19 = icmp ne i32 %18, 0
  br i1 %19, label %21, label %20

20:                                               ; preds = %17
  call void @CORD_init_min_len()
  br label %21

21:                                               ; preds = %20, %17
  %22 = load ptr, ptr %3, align 8, !tbaa !7
  %23 = getelementptr inbounds nuw %struct.CordRep, ptr %22, i32 0, i32 0
  %24 = getelementptr inbounds nuw %struct.Generic, ptr %23, i32 0, i32 4
  %25 = load i64, ptr %24, align 8, !tbaa !24
  store i64 %25, ptr %5, align 8, !tbaa !13
  %26 = getelementptr inbounds [48 x %struct.ForestElement], ptr %4, i64 0, i64 0
  %27 = load i64, ptr %5, align 8, !tbaa !13
  call void @CORD_init_forest(ptr noundef %26, i64 noundef %27)
  %28 = load ptr, ptr %3, align 8, !tbaa !7
  %29 = load i64, ptr %5, align 8, !tbaa !13
  %30 = getelementptr inbounds [48 x %struct.ForestElement], ptr %4, i64 0, i64 0
  call void @CORD_balance_insert(ptr noundef %28, i64 noundef %29, ptr noundef %30)
  %31 = getelementptr inbounds [48 x %struct.ForestElement], ptr %4, i64 0, i64 0
  %32 = load i64, ptr %5, align 8, !tbaa !13
  %33 = call ptr @CORD_concat_forest(ptr noundef %31, i64 noundef %32)
  store ptr %33, ptr %2, align 8
  store i32 1, ptr %6, align 4
  br label %34

34:                                               ; preds = %21, %15, %9
  call void @llvm.lifetime.end.p0(i64 8, ptr %5) #9
  call void @llvm.lifetime.end.p0(i64 768, ptr %4) #9
  %35 = load ptr, ptr %2, align 8
  ret ptr %35
}