; Function Attrs: nounwind uwtable
define ptr @CORD_balance(ptr noundef %0) local_unnamed_addr #2 {
  %2 = alloca [48 x %struct.ForestElement], align 16
  call void @llvm.lifetime.start.p0(i64 768, ptr nonnull %2) #17
  %3 = icmp eq ptr %0, null
  br i1 %3, label %CORD_concat_forest.exit, label %4

4:                                                ; preds = %1
  %5 = load i8, ptr %0, align 1, !tbaa !11
  %.not = icmp eq i8 %5, 0
  br i1 %.not, label %6, label %CORD_concat_forest.exit

6:                                                ; preds = %4
  %.b = load i1, ptr @min_len_init, align 4
  br i1 %.b, label %14, label %7

7:                                                ; preds = %6
  store i64 1, ptr @min_len, align 16, !tbaa !29
  store i64 2, ptr getelementptr inbounds nuw (i8, ptr @min_len, i64 8), align 8, !tbaa !29
  br label %8

8:                                                ; preds = %8, %7
  %indvars.iv.i = phi i64 [ 2, %7 ], [ %indvars.iv.next.i, %8 ]
  %.01114.i = phi i64 [ 1, %7 ], [ %.01213.i, %8 ]
  %.01213.i = phi i64 [ 2, %7 ], [ %12, %8 ]
  %9 = xor i64 %.01114.i, -1
  %10 = icmp ult i64 %.01213.i, %9
  %11 = select i1 %10, i64 %.01114.i, i64 0
  %12 = add i64 %11, %.01213.i
  %13 = getelementptr inbounds nuw [48 x i64], ptr @min_len, i64 0, i64 %indvars.iv.i
  store i64 %12, ptr %13, align 8, !tbaa !29
  %indvars.iv.next.i = add nuw nsw i64 %indvars.iv.i, 1
  %exitcond.not.i = icmp eq i64 %indvars.iv.next.i, 48
  br i1 %exitcond.not.i, label %CORD_init_min_len.exit, label %8, !llvm.loop !30

CORD_init_min_len.exit:                           ; preds = %8
  store i1 true, ptr @min_len_init, align 4
  br label %14

14:                                               ; preds = %CORD_init_min_len.exit, %6
  %15 = getelementptr inbounds nuw i8, ptr %0, i64 8
  %16 = load i64, ptr %15, align 8, !tbaa !17
  br label %18

17:                                               ; preds = %18
  %indvars.iv.next.i10 = add nuw nsw i64 %indvars.iv.i9, 1
  %exitcond.not.i11 = icmp eq i64 %indvars.iv.next.i10, 48
  br i1 %exitcond.not.i11, label %23, label %18, !llvm.loop !31

18:                                               ; preds = %17, %14
  %indvars.iv.i9 = phi i64 [ 0, %14 ], [ %indvars.iv.next.i10, %17 ]
  %19 = getelementptr inbounds nuw %struct.ForestElement, ptr %2, i64 %indvars.iv.i9
  store ptr null, ptr %19, align 16, !tbaa !32
  %20 = getelementptr inbounds nuw [48 x i64], ptr @min_len, i64 0, i64 %indvars.iv.i9
  %21 = load i64, ptr %20, align 8, !tbaa !29
  %22 = icmp ugt i64 %21, %16
  br i1 %22, label %CORD_init_forest.exit, label %17

23:                                               ; preds = %17
  %24 = load ptr, ptr @stderr, align 8, !tbaa !7
  %25 = tail call i32 (ptr, ptr, ...) @fprintf(ptr noundef %24, ptr noundef nonnull @.str, ptr noundef nonnull @.str.13) #20
  tail call void @abort() #21
  unreachable

CORD_init_forest.exit:                            ; preds = %18
  call fastcc void @CORD_balance_insert(ptr noundef nonnull %0, i64 noundef %16, ptr noundef %2)
  %.not.i12 = icmp eq i64 %16, 0
  br i1 %.not.i12, label %CORD_concat_forest.exit, label %.lr.ph

.lr.ph:                                           ; preds = %CORD_init_forest.exit, %33
  %indvars.iv = phi i64 [ %indvars.iv.next, %33 ], [ 0, %CORD_init_forest.exit ]
  %.0.i15 = phi i64 [ %.1.i, %33 ], [ 0, %CORD_init_forest.exit ]
  %.011.i14 = phi ptr [ %.112.i, %33 ], [ null, %CORD_init_forest.exit ]
  %26 = getelementptr inbounds nuw %struct.ForestElement, ptr %2, i64 %indvars.iv
  %27 = load ptr, ptr %26, align 16, !tbaa !32
  %.not15.i = icmp eq ptr %27, null
  br i1 %.not15.i, label %33, label %28

28:                                               ; preds = %.lr.ph
  %29 = tail call ptr @CORD_cat(ptr noundef nonnull %27, ptr noundef %.011.i14)
  %30 = getelementptr inbounds nuw i8, ptr %26, i64 8
  %31 = load i64, ptr %30, align 8, !tbaa !34
  %32 = add i64 %31, %.0.i15
  br label %33

33:                                               ; preds = %28, %.lr.ph
  %.112.i = phi ptr [ %29, %28 ], [ %.011.i14, %.lr.ph ]
  %.1.i = phi i64 [ %32, %28 ], [ %.0.i15, %.lr.ph ]
  %indvars.iv.next = add nuw nsw i64 %indvars.iv, 1
  %.not.i = icmp eq i64 %.1.i, %16
  br i1 %.not.i, label %CORD_concat_forest.exit, label %.lr.ph, !llvm.loop !35

CORD_concat_forest.exit:                          ; preds = %33, %CORD_init_forest.exit, %4, %1
  %.0 = phi ptr [ null, %1 ], [ %0, %4 ], [ null, %CORD_init_forest.exit ], [ %.112.i, %33 ]
  call void @llvm.lifetime.end.p0(i64 768, ptr nonnull %2) #17
  ret ptr %.0
}